target datalayout = "e-m:e-p270:32:32-p271:32:32-p272:64:64-i64:64-i128:128-f80:128-n8:16:32:64-S128"
target triple = "x86_64-pc-linux-gnu"

%struct.lua_State = type { %struct.GCRef, i8, i8, i8, i8, %struct.MRef, %struct.GCRef, ptr, ptr, %struct.MRef, %struct.MRef, %struct.GCRef, %struct.GCRef, ptr, i32 }
%struct.MRef = type { i64 }
%struct.GCRef = type { i64 }
%union.TValue = type { i64 }
%struct.GChead = type { %struct.GCRef, i8, i8, i8, i8, %struct.GCRef, %struct.GCRef, %struct.GCRef }
%struct.GCproto = type { %struct.GCRef, i8, i8, i8, i8, i32, i32, %struct.GCRef, %struct.MRef, %struct.MRef, i32, i32, i32, i8, i8, i16, %struct.GCRef, i32, i32, %struct.MRef, %struct.MRef, %struct.MRef }

@.str.9 = private unnamed_addr constant [24 x i8] c"store to dead GC object\00", align 1
@.str.29 = private unnamed_addr constant [23 x i8] c"copy of dead GC object\00", align 1

; Function Attrs: alwaysinline nounwind uwtable
define internal void @setgcVraw(ptr noundef %0, ptr noundef %1, i32 noundef %2) #5 {
  %4 = alloca ptr, align 8
  %5 = alloca ptr, align 8
  %6 = alloca i32, align 4
  store ptr %0, ptr %4, align 8, !tbaa !56
  store ptr %1, ptr %5, align 8, !tbaa !57
  store i32 %2, ptr %6, align 4, !tbaa !35
  %7 = load ptr, ptr %5, align 8, !tbaa !57
  %8 = ptrtoint ptr %7 to i64
  %9 = load i32, ptr %6, align 4, !tbaa !35
  %10 = zext i32 %9 to i64
  %11 = shl i64 %10, 47
  %12 = or i64 %8, %11
  %13 = load ptr, ptr %4, align 8, !tbaa !56
  %14 = getelementptr inbounds nuw %struct.GCRef, ptr %13, i32 0, i32 0
  store i64 %12, ptr %14, align 8, !tbaa !37
  ret void
}

; Function Attrs: alwaysinline nounwind uwtable
define internal void @checklivetv(ptr noundef %0, ptr noundef %1, ptr noundef %2) #5 {
  %4 = alloca ptr, align 8
  %5 = alloca ptr, align 8
  %6 = alloca ptr, align 8
  store ptr %0, ptr %4, align 8, !tbaa !4
  store ptr %1, ptr %5, align 8, !tbaa !56
  store ptr %2, ptr %6, align 8, !tbaa !41
  ret void
}

; Function Attrs: alwaysinline nounwind uwtable
define internal void @setgcV(ptr noundef %0, ptr noundef %1, ptr noundef %2, i32 noundef %3) #5 {
  %5 = alloca ptr, align 8
  %6 = alloca ptr, align 8
  %7 = alloca ptr, align 8
  %8 = alloca i32, align 4
  store ptr %0, ptr %5, align 8, !tbaa !4
  store ptr %1, ptr %6, align 8, !tbaa !56
  store ptr %2, ptr %7, align 8, !tbaa !57
  store i32 %3, ptr %8, align 4, !tbaa !35
  %9 = load ptr, ptr %6, align 8, !tbaa !56
  %10 = load ptr, ptr %7, align 8, !tbaa !57
  %11 = load i32, ptr %8, align 4, !tbaa !35
  call void @setgcVraw(ptr noundef %9, ptr noundef %10, i32 noundef %11)
  %12 = load ptr, ptr %5, align 8, !tbaa !4
  %13 = load ptr, ptr %6, align 8, !tbaa !56
  call void @checklivetv(ptr noundef %12, ptr noundef %13, ptr noundef @.str.9)
  ret void
}

; Function Attrs: alwaysinline nounwind uwtable
define internal void @copyTV(ptr noundef %0, ptr noundef %1, ptr noundef %2) #5 {
  %4 = alloca ptr, align 8
  %5 = alloca ptr, align 8
  %6 = alloca ptr, align 8
  store ptr %0, ptr %4, align 8, !tbaa !4
  store ptr %1, ptr %5, align 8, !tbaa !56
  store ptr %2, ptr %6, align 8, !tbaa !56
  %7 = load ptr, ptr %5, align 8, !tbaa !56
  %8 = load ptr, ptr %6, align 8, !tbaa !56
  call void @llvm.memcpy.p0.p0.i64(ptr align 8 %7, ptr align 8 %8, i64 8, i1 false), !tbaa.struct !113
  %9 = load ptr, ptr %4, align 8, !tbaa !4
  %10 = load ptr, ptr %5, align 8, !tbaa !56
  call void @checklivetv(ptr noundef %9, ptr noundef %10, ptr noundef @.str.29)
  ret void
}

; Function Attrs: nounwind uwtable
define internal i32 @lj_cf_jit_util_funck(ptr noundef %0) #0 {
  %2 = alloca i32, align 4
  %3 = alloca ptr, align 8
  %4 = alloca ptr, align 8
  %5 = alloca i64, align 8
  %6 = alloca i32, align 4
  %7 = alloca ptr, align 8
  store ptr %0, ptr %3, align 8, !tbaa !4
  call void @llvm.lifetime.start.p0(i64 8, ptr %4) #9
  %8 = load ptr, ptr %3, align 8, !tbaa !4
  %9 = call ptr @lj_lib_checkLproto(ptr noundef %8, i32 noundef 1, i32 noundef 0)
  store ptr %9, ptr %4, align 8, !tbaa !70
  call void @llvm.lifetime.start.p0(i64 8, ptr %5) #9
  %10 = load ptr, ptr %3, align 8, !tbaa !4
  %11 = call i32 @lj_lib_checkint(ptr noundef %10, i32 noundef 2)
  %12 = sext i32 %11 to i64
  store i64 %12, ptr %5, align 8, !tbaa !61
  %13 = load i64, ptr %5, align 8, !tbaa !61
  %14 = icmp sge i64 %13, 0
  br i1 %14, label %15, label %36

15:                                               ; preds = %1
  %16 = load i64, ptr %5, align 8, !tbaa !61
  %17 = load ptr, ptr %4, align 8, !tbaa !70
  %18 = getelementptr inbounds nuw %struct.GCproto, ptr %17, i32 0, i32 11
  %19 = load i32, ptr %18, align 4, !tbaa !78
  %20 = zext i32 %19 to i64
  %21 = icmp slt i64 %16, %20
  br i1 %21, label %22, label %35

22:                                               ; preds = %15
  %23 = load ptr, ptr %3, align 8, !tbaa !4
  %24 = load ptr, ptr %3, align 8, !tbaa !4
  %25 = getelementptr inbounds nuw %struct.lua_State, ptr %24, i32 0, i32 8
  %26 = load ptr, ptr %25, align 8, !tbaa !16
  %27 = getelementptr inbounds %union.TValue, ptr %26, i64 -1
  %28 = load ptr, ptr %4, align 8, !tbaa !70
  %29 = getelementptr inbounds nuw %struct.GCproto, ptr %28, i32 0, i32 8
  %30 = getelementptr inbounds nuw %struct.MRef, ptr %29, i32 0, i32 0
  %31 = load i64, ptr %30, align 8, !tbaa !83
  %32 = inttoptr i64 %31 to ptr
  %33 = load i64, ptr %5, align 8, !tbaa !61
  %34 = getelementptr inbounds %union.TValue, ptr %32, i64 %33
  call void @copyTV(ptr noundef %23, ptr noundef %27, ptr noundef %34)
  store i32 1, ptr %2, align 4
  store i32 1, ptr %6, align 4
  br label %68

35:                                               ; preds = %15
  br label %67

36:                                               ; preds = %1
  %37 = load i64, ptr %5, align 8, !tbaa !61
  %38 = xor i64 %37, -1
  %39 = load ptr, ptr %4, align 8, !tbaa !70
  %40 = getelementptr inbounds nuw %struct.GCproto, ptr %39, i32 0, i32 10
  %41 = load i32, ptr %40, align 8, !tbaa !77
  %42 = zext i32 %41 to i64
  %43 = icmp slt i64 %38, %42
  br i1 %43, label %44, label %66

44:                                               ; preds = %36
  call void @llvm.lifetime.start.p0(i64 8, ptr %7) #9
  %45 = load ptr, ptr %4, align 8, !tbaa !70
  %46 = getelementptr inbounds nuw %struct.GCproto, ptr %45, i32 0, i32 8
  %47 = getelementptr inbounds nuw %struct.MRef, ptr %46, i32 0, i32 0
  %48 = load i64, ptr %47, align 8, !tbaa !83
  %49 = inttoptr i64 %48 to ptr
  %50 = load i64, ptr %5, align 8, !tbaa !61
  %51 = getelementptr inbounds %struct.GCRef, ptr %49, i64 %50
  %52 = getelementptr inbounds nuw %struct.GCRef, ptr %51, i32 0, i32 0
  %53 = load i64, ptr %52, align 8, !tbaa !84
  %54 = inttoptr i64 %53 to ptr
  store ptr %54, ptr %7, align 8, !tbaa !57
  %55 = load ptr, ptr %3, align 8, !tbaa !4
  %56 = load ptr, ptr %3, align 8, !tbaa !4
  %57 = getelementptr inbounds nuw %struct.lua_State, ptr %56, i32 0, i32 8
  %58 = load ptr, ptr %57, align 8, !tbaa !16
  %59 = getelementptr inbounds %union.TValue, ptr %58, i64 -1
  %60 = load ptr, ptr %7, align 8, !tbaa !57
  %61 = load ptr, ptr %7, align 8, !tbaa !57
  %62 = getelementptr inbounds nuw %struct.GChead, ptr %61, i32 0, i32 2
  %63 = load i8, ptr %62, align 1, !tbaa !37
  %64 = zext i8 %63 to i32
  %65 = xor i32 %64, -1
  call void @setgcV(ptr noundef %55, ptr noundef %59, ptr noundef %60, i32 noundef %65)
  store i32 1, ptr %2, align 4
  store i32 1, ptr %6, align 4
  call void @llvm.lifetime.end.p0(i64 8, ptr %7) #9
  br label %68

66:                                               ; preds = %36
  br label %67

67:                                               ; preds = %66, %35
  store i32 0, ptr %2, align 4
  store i32 1, ptr %6, align 4
  br label %68

68:                                               ; preds = %67, %44, %22
  call void @llvm.lifetime.end.p0(i64 8, ptr %5) #9
  call void @llvm.lifetime.end.p0(i64 8, ptr %4) #9
  %69 = load i32, ptr %2, align 4
  ret i32 %69
}