; Function Attrs: nounwind uwtable
define internal range(i32 0, 2) i32 @lj_cf_jit_util_funck(ptr noundef %0) #0 {
  %2 = tail call ptr @lj_lib_checkLproto(ptr noundef %0, i32 noundef 1, i32 noundef 0) #8
  %3 = tail call i32 @lj_lib_checkint(ptr noundef %0, i32 noundef 2) #8
  %4 = sext i32 %3 to i64
  %5 = icmp sgt i32 %3, -1
  br i1 %5, label %6, label %20

6:                                                ; preds = %1
  %7 = getelementptr inbounds nuw i8, ptr %2, i64 52
  %8 = load i32, ptr %7, align 4, !tbaa !64
  %9 = zext i32 %8 to i64
  %10 = icmp slt i64 %4, %9
  br i1 %10, label %11, label %42

11:                                               ; preds = %6
  %12 = getelementptr inbounds nuw i8, ptr %0, i64 40
  %13 = load ptr, ptr %12, align 8, !tbaa !32
  %14 = getelementptr inbounds i8, ptr %13, i64 -8
  %15 = getelementptr inbounds nuw i8, ptr %2, i64 32
  %16 = load i64, ptr %15, align 8, !tbaa !69
  %17 = inttoptr i64 %16 to ptr
  %18 = getelementptr inbounds nuw %union.TValue, ptr %17, i64 %4
  %19 = load i64, ptr %18, align 8, !tbaa !34
  store i64 %19, ptr %14, align 8, !tbaa !34
  br label %42

20:                                               ; preds = %1
  %21 = xor i64 %4, -1
  %22 = getelementptr inbounds nuw i8, ptr %2, i64 48
  %23 = load i32, ptr %22, align 8, !tbaa !63
  %24 = zext i32 %23 to i64
  %25 = icmp slt i64 %21, %24
  br i1 %25, label %26, label %42

26:                                               ; preds = %20
  %27 = getelementptr inbounds nuw i8, ptr %2, i64 32
  %28 = load i64, ptr %27, align 8, !tbaa !69
  %29 = inttoptr i64 %28 to ptr
  %30 = getelementptr inbounds %struct.GCRef, ptr %29, i64 %4
  %31 = load i64, ptr %30, align 8, !tbaa !70
  %32 = inttoptr i64 %31 to ptr
  %33 = getelementptr inbounds nuw i8, ptr %0, i64 40
  %34 = load ptr, ptr %33, align 8, !tbaa !32
  %35 = getelementptr inbounds i8, ptr %34, i64 -8
  %36 = getelementptr inbounds nuw i8, ptr %32, i64 9
  %37 = load i8, ptr %36, align 1, !tbaa !34
  %38 = zext i8 %37 to i64
  %39 = xor i64 %38, -1
  %40 = shl nsw i64 %39, 47
  %41 = or i64 %40, %31
  store i64 %41, ptr %35, align 8, !tbaa !34
  br label %42

42:                                               ; preds = %6, %20, %26, %11
  %.0 = phi i32 [ 1, %11 ], [ 1, %26 ], [ 0, %20 ], [ 0, %6 ]
  ret i32 %.0
}